target datalayout = "e-m:e-p270:32:32-p271:32:32-p272:64:64-i64:64-i128:128-f80:128-n8:16:32:64-S128"
target triple = "x86_64-pc-linux-gnu"

%struct.PlannedStmt = type { i32, i32, i64, i8, i8, i8, i8, i8, i8, i32, ptr, ptr, ptr, ptr, ptr, ptr, ptr, ptr, ptr, ptr, ptr, ptr, ptr, ptr, i32, i32 }
%struct.ForEachState = type { ptr, i32 }
%struct.Node = type { i32 }
%struct.Query = type { i32, i32, i32, i64, i8, ptr, i32, i8, i8, i8, i8, i8, i8, i8, i8, i8, i8, i8, ptr, ptr, ptr, ptr, ptr, i32, ptr, ptr, i32, ptr, ptr, ptr, ptr, ptr, i8, ptr, ptr, ptr, ptr, ptr, ptr, ptr, i32, ptr, ptr, ptr, ptr, i32, i32 }
%struct.List = type { i32, i32, i32, ptr, [0 x %union.ListCell] }
%union.ListCell = type { ptr }

@.str = private unnamed_addr constant [27 x i8] c"unrecognized node type: %d\00", align 1
@.str.1 = private unnamed_addr constant [9 x i8] c"pquery.c\00", align 1
@__func__.ChoosePortalStrategy = private unnamed_addr constant [21 x i8] c"ChoosePortalStrategy\00", align 1

; Function Attrs: inlinehint nounwind uwtable
define internal ptr @list_nth_cell(ptr noundef %0, i32 noundef %1) #3 {
  %3 = alloca ptr, align 8
  %4 = alloca i32, align 4
  store ptr %0, ptr %3, align 8
  store i32 %1, ptr %4, align 4
  %5 = load ptr, ptr %3, align 8
  %6 = getelementptr inbounds nuw %struct.List, ptr %5, i32 0, i32 3
  %7 = load ptr, ptr %6, align 8
  %8 = load i32, ptr %4, align 4
  %9 = sext i32 %8 to i64
  %10 = getelementptr inbounds %union.ListCell, ptr %7, i64 %9
  ret ptr %10
}

; Function Attrs: inlinehint nounwind uwtable
define internal i32 @list_length(ptr noundef %0) #3 {
  %2 = alloca ptr, align 8
  store ptr %0, ptr %2, align 8
  %3 = load ptr, ptr %2, align 8
  %4 = icmp ne ptr %3, null
  br i1 %4, label %5, label %9

5:                                                ; preds = %1
  %6 = load ptr, ptr %2, align 8
  %7 = getelementptr inbounds nuw %struct.List, ptr %6, i32 0, i32 1
  %8 = load i32, ptr %7, align 4
  br label %10

9:                                                ; preds = %1
  br label %10

10:                                               ; preds = %9, %5
  %11 = phi i32 [ %8, %5 ], [ 0, %9 ]
  ret i32 %11
}

; Function Attrs: nounwind uwtable
define dso_local i32 @ChoosePortalStrategy(ptr noundef %0) #0 {
  %2 = alloca i32, align 4
  %3 = alloca ptr, align 8
  %4 = alloca i32, align 4
  %5 = alloca ptr, align 8
  %6 = alloca ptr, align 8
  %7 = alloca ptr, align 8
  %8 = alloca i32, align 4
  %9 = alloca ptr, align 8
  %10 = alloca %struct.ForEachState, align 8
  %11 = alloca ptr, align 8
  %12 = alloca ptr, align 8
  %13 = alloca ptr, align 8
  store ptr %0, ptr %3, align 8
  call void @llvm.lifetime.start.p0(i64 4, ptr %4) #10
  call void @llvm.lifetime.start.p0(i64 8, ptr %5) #10
  %14 = load ptr, ptr %3, align 8
  %15 = call i32 @list_length(ptr noundef %14)
  %16 = icmp eq i32 %15, 1
  br i1 %16, label %17, label %119

17:                                               ; preds = %1
  call void @llvm.lifetime.start.p0(i64 8, ptr %6) #10
  %18 = load ptr, ptr %3, align 8
  %19 = call ptr @list_nth_cell(ptr noundef %18, i32 noundef 0)
  %20 = load ptr, ptr %19, align 8
  store ptr %20, ptr %6, align 8
  %21 = load ptr, ptr %6, align 8
  %22 = getelementptr inbounds nuw %struct.Node, ptr %21, i32 0, i32 0
  %23 = load i32, ptr %22, align 4
  %24 = icmp eq i32 %23, 67
  br i1 %24, label %25, label %60

25:                                               ; preds = %17
  call void @llvm.lifetime.start.p0(i64 8, ptr %7) #10
  %26 = load ptr, ptr %6, align 8
  store ptr %26, ptr %7, align 8
  %27 = load ptr, ptr %7, align 8
  %28 = getelementptr inbounds nuw %struct.Query, ptr %27, i32 0, i32 4
  %29 = load i8, ptr %28, align 8, !range !4, !noundef !5
  %30 = trunc i8 %29 to i1
  br i1 %30, label %31, label %56

31:                                               ; preds = %25
  %32 = load ptr, ptr %7, align 8
  %33 = getelementptr inbounds nuw %struct.Query, ptr %32, i32 0, i32 1
  %34 = load i32, ptr %33, align 4
  %35 = icmp eq i32 %34, 1
  br i1 %35, label %36, label %43

36:                                               ; preds = %31
  %37 = load ptr, ptr %7, align 8
  %38 = getelementptr inbounds nuw %struct.Query, ptr %37, i32 0, i32 13
  %39 = load i8, ptr %38, align 2, !range !4, !noundef !5
  %40 = trunc i8 %39 to i1
  br i1 %40, label %41, label %42

41:                                               ; preds = %36
  store i32 2, ptr %2, align 4
  store i32 1, ptr %8, align 4
  br label %57

42:                                               ; preds = %36
  store i32 0, ptr %2, align 4
  store i32 1, ptr %8, align 4
  br label %57

43:                                               ; preds = %31
  %44 = load ptr, ptr %7, align 8
  %45 = getelementptr inbounds nuw %struct.Query, ptr %44, i32 0, i32 1
  %46 = load i32, ptr %45, align 4
  %47 = icmp eq i32 %46, 6
  br i1 %47, label %48, label %55

48:                                               ; preds = %43
  %49 = load ptr, ptr %7, align 8
  %50 = getelementptr inbounds nuw %struct.Query, ptr %49, i32 0, i32 5
  %51 = load ptr, ptr %50, align 8
  %52 = call zeroext i1 @UtilityReturnsTuples(ptr noundef %51)
  br i1 %52, label %53, label %54

53:                                               ; preds = %48
  store i32 3, ptr %2, align 4
  store i32 1, ptr %8, align 4
  br label %57

54:                                               ; preds = %48
  store i32 4, ptr %2, align 4
  store i32 1, ptr %8, align 4
  br label %57

55:                                               ; preds = %43
  br label %56

56:                                               ; preds = %55, %25
  store i32 0, ptr %8, align 4
  br label %57

57:                                               ; preds = %56, %54, %53, %42, %41
  call void @llvm.lifetime.end.p0(i64 8, ptr %7) #10
  %58 = load i32, ptr %8, align 4
  switch i32 %58, label %116 [
    i32 0, label %59
  ]

59:                                               ; preds = %57
  br label %115

60:                                               ; preds = %17
  %61 = load ptr, ptr %6, align 8
  %62 = getelementptr inbounds nuw %struct.Node, ptr %61, i32 0, i32 0
  %63 = load i32, ptr %62, align 4
  %64 = icmp eq i32 %63, 329
  br i1 %64, label %65, label %100

65:                                               ; preds = %60
  call void @llvm.lifetime.start.p0(i64 8, ptr %9) #10
  %66 = load ptr, ptr %6, align 8
  store ptr %66, ptr %9, align 8
  %67 = load ptr, ptr %9, align 8
  %68 = getelementptr inbounds nuw %struct.PlannedStmt, ptr %67, i32 0, i32 5
  %69 = load i8, ptr %68, align 2, !range !4, !noundef !5
  %70 = trunc i8 %69 to i1
  br i1 %70, label %71, label %96

71:                                               ; preds = %65
  %72 = load ptr, ptr %9, align 8
  %73 = getelementptr inbounds nuw %struct.PlannedStmt, ptr %72, i32 0, i32 1
  %74 = load i32, ptr %73, align 4
  %75 = icmp eq i32 %74, 1
  br i1 %75, label %76, label %83

76:                                               ; preds = %71
  %77 = load ptr, ptr %9, align 8
  %78 = getelementptr inbounds nuw %struct.PlannedStmt, ptr %77, i32 0, i32 4
  %79 = load i8, ptr %78, align 1, !range !4, !noundef !5
  %80 = trunc i8 %79 to i1
  br i1 %80, label %81, label %82

81:                                               ; preds = %76
  store i32 2, ptr %2, align 4
  store i32 1, ptr %8, align 4
  br label %97

82:                                               ; preds = %76
  store i32 0, ptr %2, align 4
  store i32 1, ptr %8, align 4
  br label %97

83:                                               ; preds = %71
  %84 = load ptr, ptr %9, align 8
  %85 = getelementptr inbounds nuw %struct.PlannedStmt, ptr %84, i32 0, i32 1
  %86 = load i32, ptr %85, align 4
  %87 = icmp eq i32 %86, 6
  br i1 %87, label %88, label %95

88:                                               ; preds = %83
  %89 = load ptr, ptr %9, align 8
  %90 = getelementptr inbounds nuw %struct.PlannedStmt, ptr %89, i32 0, i32 23
  %91 = load ptr, ptr %90, align 8
  %92 = call zeroext i1 @UtilityReturnsTuples(ptr noundef %91)
  br i1 %92, label %93, label %94

93:                                               ; preds = %88
  store i32 3, ptr %2, align 4
  store i32 1, ptr %8, align 4
  br label %97

94:                                               ; preds = %88
  store i32 4, ptr %2, align 4
  store i32 1, ptr %8, align 4
  br label %97

95:                                               ; preds = %83
  br label %96

96:                                               ; preds = %95, %65
  store i32 0, ptr %8, align 4
  br label %97

97:                                               ; preds = %96, %94, %93, %82, %81
  call void @llvm.lifetime.end.p0(i64 8, ptr %9) #10
  %98 = load i32, ptr %8, align 4
  switch i32 %98, label %116 [
    i32 0, label %99
  ]

99:                                               ; preds = %97
  br label %114

100:                                              ; preds = %60
  br label %101

101:                                              ; preds = %100
  br i1 true, label %102, label %104

102:                                              ; preds = %101
  %103 = call zeroext i1 @errstart_cold(i32 noundef 21, ptr noundef null) #11
  br i1 %103, label %106, label %111

104:                                              ; preds = %101
  %105 = call zeroext i1 @errstart(i32 noundef 21, ptr noundef null)
  br i1 %105, label %106, label %111

106:                                              ; preds = %104, %102
  %107 = load ptr, ptr %6, align 8
  %108 = getelementptr inbounds nuw %struct.Node, ptr %107, i32 0, i32 0
  %109 = load i32, ptr %108, align 4
  %110 = call i32 (ptr, ...) @errmsg_internal(ptr noundef @.str, i32 noundef %109)
  call void @errfinish(ptr noundef @.str.1, i32 noundef 269, ptr noundef @__func__.ChoosePortalStrategy)
  br label %111

111:                                              ; preds = %106, %104, %102
  unreachable

112:                                              ; No predecessors!
  br label %113

113:                                              ; preds = %112
  br label %114

114:                                              ; preds = %113, %99
  br label %115

115:                                              ; preds = %114, %59
  store i32 0, ptr %8, align 4
  br label %116

116:                                              ; preds = %115, %97, %57
  call void @llvm.lifetime.end.p0(i64 8, ptr %6) #10
  %117 = load i32, ptr %8, align 4
  switch i32 %117, label %246 [
    i32 0, label %118
  ]

118:                                              ; preds = %116
  br label %119

119:                                              ; preds = %118, %1
  store i32 0, ptr %4, align 4
  call void @llvm.lifetime.start.p0(i64 16, ptr %10) #10
  %120 = getelementptr inbounds nuw %struct.ForEachState, ptr %10, i32 0, i32 0
  %121 = load ptr, ptr %3, align 8
  store ptr %121, ptr %120, align 8
  %122 = getelementptr inbounds nuw %struct.ForEachState, ptr %10, i32 0, i32 1
  store i32 0, ptr %122, align 8
  %123 = getelementptr i8, ptr %10, i64 12
  call void @llvm.memset.p0.i64(ptr align 4 %123, i8 0, i64 4, i1 false)
  br label %124

124:                                              ; preds = %235, %119
  %125 = getelementptr inbounds nuw %struct.ForEachState, ptr %10, i32 0, i32 0
  %126 = load ptr, ptr %125, align 8
  %127 = icmp ne ptr %126, null
  br i1 %127, label %128, label %145

128:                                              ; preds = %124
  %129 = getelementptr inbounds nuw %struct.ForEachState, ptr %10, i32 0, i32 1
  %130 = load i32, ptr %129, align 8
  %131 = getelementptr inbounds nuw %struct.ForEachState, ptr %10, i32 0, i32 0
  %132 = load ptr, ptr %131, align 8
  %133 = getelementptr inbounds nuw %struct.List, ptr %132, i32 0, i32 1
  %134 = load i32, ptr %133, align 4
  %135 = icmp slt i32 %130, %134
  br i1 %135, label %136, label %145

136:                                              ; preds = %128
  %137 = getelementptr inbounds nuw %struct.ForEachState, ptr %10, i32 0, i32 0
  %138 = load ptr, ptr %137, align 8
  %139 = getelementptr inbounds nuw %struct.List, ptr %138, i32 0, i32 3
  %140 = load ptr, ptr %139, align 8
  %141 = getelementptr inbounds nuw %struct.ForEachState, ptr %10, i32 0, i32 1
  %142 = load i32, ptr %141, align 8
  %143 = sext i32 %142 to i64
  %144 = getelementptr inbounds %union.ListCell, ptr %140, i64 %143
  store ptr %144, ptr %5, align 8
  br label %146

145:                                              ; preds = %128, %124
  store ptr null, ptr %5, align 8
  br label %146

146:                                              ; preds = %145, %136
  %147 = phi i32 [ 1, %136 ], [ 0, %145 ]
  %148 = icmp ne i32 %147, 0
  br i1 %148, label %150, label %149

149:                                              ; preds = %146
  store i32 4, ptr %8, align 4
  br label %239

150:                                              ; preds = %146
  call void @llvm.lifetime.start.p0(i64 8, ptr %11) #10
  %151 = load ptr, ptr %5, align 8
  %152 = load ptr, ptr %151, align 8
  store ptr %152, ptr %11, align 8
  %153 = load ptr, ptr %11, align 8
  %154 = getelementptr inbounds nuw %struct.Node, ptr %153, i32 0, i32 0
  %155 = load i32, ptr %154, align 4
  %156 = icmp eq i32 %155, 67
  br i1 %156, label %157, label %184

157:                                              ; preds = %150
  call void @llvm.lifetime.start.p0(i64 8, ptr %12) #10
  %158 = load ptr, ptr %11, align 8
  store ptr %158, ptr %12, align 8
  %159 = load ptr, ptr %12, align 8
  %160 = getelementptr inbounds nuw %struct.Query, ptr %159, i32 0, i32 4
  %161 = load i8, ptr %160, align 8, !range !4, !noundef !5
  %162 = trunc i8 %161 to i1
  br i1 %162, label %163, label %180

163:                                              ; preds = %157
  %164 = load i32, ptr %4, align 4
  %165 = add i32 %164, 1
  store i32 %165, ptr %4, align 4
  %166 = icmp sgt i32 %165, 1
  br i1 %166, label %167, label %168

167:                                              ; preds = %163
  store i32 4, ptr %2, align 4
  store i32 1, ptr %8, align 4
  br label %181

168:                                              ; preds = %163
  %169 = load ptr, ptr %12, align 8
  %170 = getelementptr inbounds nuw %struct.Query, ptr %169, i32 0, i32 1
  %171 = load i32, ptr %170, align 4
  %172 = icmp eq i32 %171, 6
  br i1 %172, label %178, label %173

173:                                              ; preds = %168
  %174 = load ptr, ptr %12, align 8
  %175 = getelementptr inbounds nuw %struct.Query, ptr %174, i32 0, i32 30
  %176 = load ptr, ptr %175, align 8
  %177 = icmp eq ptr %176, null
  br i1 %177, label %178, label %179

178:                                              ; preds = %173, %168
  store i32 4, ptr %2, align 4
  store i32 1, ptr %8, align 4
  br label %181

179:                                              ; preds = %173
  br label %180

180:                                              ; preds = %179, %157
  store i32 0, ptr %8, align 4
  br label %181

181:                                              ; preds = %180, %178, %167
  call void @llvm.lifetime.end.p0(i64 8, ptr %12) #10
  %182 = load i32, ptr %8, align 4
  switch i32 %182, label %232 [
    i32 0, label %183
  ]

183:                                              ; preds = %181
  br label %231

184:                                              ; preds = %150
  %185 = load ptr, ptr %11, align 8
  %186 = getelementptr inbounds nuw %struct.Node, ptr %185, i32 0, i32 0
  %187 = load i32, ptr %186, align 4
  %188 = icmp eq i32 %187, 329
  br i1 %188, label %189, label %216

189:                                              ; preds = %184
  call void @llvm.lifetime.start.p0(i64 8, ptr %13) #10
  %190 = load ptr, ptr %11, align 8
  store ptr %190, ptr %13, align 8
  %191 = load ptr, ptr %13, align 8
  %192 = getelementptr inbounds nuw %struct.PlannedStmt, ptr %191, i32 0, i32 5
  %193 = load i8, ptr %192, align 2, !range !4, !noundef !5
  %194 = trunc i8 %193 to i1
  br i1 %194, label %195, label %212

195:                                              ; preds = %189
  %196 = load i32, ptr %4, align 4
  %197 = add i32 %196, 1
  store i32 %197, ptr %4, align 4
  %198 = icmp sgt i32 %197, 1
  br i1 %198, label %199, label %200

199:                                              ; preds = %195
  store i32 4, ptr %2, align 4
  store i32 1, ptr %8, align 4
  br label %213

200:                                              ; preds = %195
  %201 = load ptr, ptr %13, align 8
  %202 = getelementptr inbounds nuw %struct.PlannedStmt, ptr %201, i32 0, i32 1
  %203 = load i32, ptr %202, align 4
  %204 = icmp eq i32 %203, 6
  br i1 %204, label %210, label %205

205:                                              ; preds = %200
  %206 = load ptr, ptr %13, align 8
  %207 = getelementptr inbounds nuw %struct.PlannedStmt, ptr %206, i32 0, i32 3
  %208 = load i8, ptr %207, align 8, !range !4, !noundef !5
  %209 = trunc i8 %208 to i1
  br i1 %209, label %211, label %210

210:                                              ; preds = %205, %200
  store i32 4, ptr %2, align 4
  store i32 1, ptr %8, align 4
  br label %213

211:                                              ; preds = %205
  br label %212

212:                                              ; preds = %211, %189
  store i32 0, ptr %8, align 4
  br label %213

213:                                              ; preds = %212, %210, %199
  call void @llvm.lifetime.end.p0(i64 8, ptr %13) #10
  %214 = load i32, ptr %8, align 4
  switch i32 %214, label %232 [
    i32 0, label %215
  ]

215:                                              ; preds = %213
  br label %230

216:                                              ; preds = %184
  br label %217

217:                                              ; preds = %216
  br i1 true, label %218, label %220

218:                                              ; preds = %217
  %219 = call zeroext i1 @errstart_cold(i32 noundef 21, ptr noundef null) #11
  br i1 %219, label %222, label %227

220:                                              ; preds = %217
  %221 = call zeroext i1 @errstart(i32 noundef 21, ptr noundef null)
  br i1 %221, label %222, label %227

222:                                              ; preds = %220, %218
  %223 = load ptr, ptr %11, align 8
  %224 = getelementptr inbounds nuw %struct.Node, ptr %223, i32 0, i32 0
  %225 = load i32, ptr %224, align 4
  %226 = call i32 (ptr, ...) @errmsg_internal(ptr noundef @.str, i32 noundef %225)
  call void @errfinish(ptr noundef @.str.1, i32 noundef 309, ptr noundef @__func__.ChoosePortalStrategy)
  br label %227

227:                                              ; preds = %222, %220, %218
  unreachable

228:                                              ; No predecessors!
  br label %229

229:                                              ; preds = %228
  br label %230

230:                                              ; preds = %229, %215
  br label %231

231:                                              ; preds = %230, %183
  store i32 0, ptr %8, align 4
  br label %232

232:                                              ; preds = %231, %213, %181
  call void @llvm.lifetime.end.p0(i64 8, ptr %11) #10
  %233 = load i32, ptr %8, align 4
  switch i32 %233, label %239 [
    i32 0, label %234
  ]

234:                                              ; preds = %232
  br label %235

235:                                              ; preds = %234
  %236 = getelementptr inbounds nuw %struct.ForEachState, ptr %10, i32 0, i32 1
  %237 = load i32, ptr %236, align 8
  %238 = add i32 %237, 1
  store i32 %238, ptr %236, align 8
  br label %124, !llvm.loop !6

239:                                              ; preds = %232, %149
  call void @llvm.lifetime.end.p0(i64 16, ptr %10) #10
  %240 = load i32, ptr %8, align 4
  switch i32 %240, label %246 [
    i32 4, label %241
  ]

241:                                              ; preds = %239
  %242 = load i32, ptr %4, align 4
  %243 = icmp eq i32 %242, 1
  br i1 %243, label %244, label %245

244:                                              ; preds = %241
  store i32 1, ptr %2, align 4
  store i32 1, ptr %8, align 4
  br label %246

245:                                              ; preds = %241
  store i32 4, ptr %2, align 4
  store i32 1, ptr %8, align 4
  br label %246

246:                                              ; preds = %245, %244, %239, %116
  call void @llvm.lifetime.end.p0(i64 8, ptr %5) #10
  call void @llvm.lifetime.end.p0(i64 4, ptr %4) #10
  %247 = load i32, ptr %2, align 4
  ret i32 %247
}