; Function Attrs: nounwind uwtable
define dso_local range(i32 0, 5) i32 @ChoosePortalStrategy(ptr noundef readonly captures(address_is_null) %0) local_unnamed_addr #0 {
  %.not.i = icmp eq ptr %0, null
  br i1 %.not.i, label %.thread90, label %list_length.exit

list_length.exit:                                 ; preds = %1
  %2 = getelementptr inbounds nuw i8, ptr %0, i64 4
  %3 = load i32, ptr %2, align 4
  %4 = icmp eq i32 %3, 1
  br i1 %4, label %5, label %.lr.ph

5:                                                ; preds = %list_length.exit
  %6 = getelementptr i8, ptr %0, i64 16
  %.val = load ptr, ptr %6, align 8
  %7 = load ptr, ptr %.val, align 8
  %8 = load i32, ptr %7, align 4
  switch i32 %8, label %39 [
    i32 67, label %9
    i32 329, label %24
  ]

9:                                                ; preds = %5
  %10 = getelementptr inbounds nuw i8, ptr %7, i64 24
  %11 = load i8, ptr %10, align 8, !range !4, !noundef !5
  %12 = trunc nuw i8 %11 to i1
  br i1 %12, label %13, label %.lr.ph140

13:                                               ; preds = %9
  %14 = getelementptr inbounds nuw i8, ptr %7, i64 4
  %15 = load i32, ptr %14, align 4
  switch i32 %15, label %.lr.ph140 [
    i32 1, label %16
    i32 6, label %20
  ]

16:                                               ; preds = %13
  %17 = getelementptr inbounds nuw i8, ptr %7, i64 50
  %18 = load i8, ptr %17, align 2, !range !4, !noundef !5
  %19 = trunc nuw i8 %18 to i1
  %. = select i1 %19, i32 2, i32 0
  br label %.thread90

20:                                               ; preds = %13
  %21 = getelementptr inbounds nuw i8, ptr %7, i64 32
  %22 = load ptr, ptr %21, align 8
  %23 = tail call zeroext i1 @UtilityReturnsTuples(ptr noundef %22) #11
  %.76 = select i1 %23, i32 3, i32 4
  br label %.thread90

24:                                               ; preds = %5
  %25 = getelementptr inbounds nuw i8, ptr %7, i64 18
  %26 = load i8, ptr %25, align 2, !range !4, !noundef !5
  %27 = trunc nuw i8 %26 to i1
  br i1 %27, label %28, label %.lr.ph140

28:                                               ; preds = %24
  %29 = getelementptr inbounds nuw i8, ptr %7, i64 4
  %30 = load i32, ptr %29, align 4
  switch i32 %30, label %.lr.ph140 [
    i32 1, label %31
    i32 6, label %35
  ]

31:                                               ; preds = %28
  %32 = getelementptr inbounds nuw i8, ptr %7, i64 17
  %33 = load i8, ptr %32, align 1, !range !4, !noundef !5
  %34 = trunc nuw i8 %33 to i1
  %.77 = select i1 %34, i32 2, i32 0
  br label %.thread90

35:                                               ; preds = %28
  %36 = getelementptr inbounds nuw i8, ptr %7, i64 136
  %37 = load ptr, ptr %36, align 8
  %38 = tail call zeroext i1 @UtilityReturnsTuples(ptr noundef %37) #11
  %.78 = select i1 %38, i32 3, i32 4
  br label %.thread90

39:                                               ; preds = %5
  %40 = tail call zeroext i1 @errstart_cold(i32 noundef 21, ptr noundef null) #12
  tail call void @llvm.assume(i1 %40)
  %41 = load i32, ptr %7, align 4
  %42 = tail call i32 (ptr, ...) @errmsg_internal(ptr noundef nonnull @.str, i32 noundef %41) #11
  tail call void @errfinish(ptr noundef nonnull @.str.1, i32 noundef 269, ptr noundef nonnull @__func__.ChoosePortalStrategy) #11
  unreachable

.lr.ph:                                           ; preds = %list_length.exit
  %43 = icmp sgt i32 %3, 0
  br i1 %43, label %.lr.ph140, label %.thread90

.lr.ph140:                                        ; preds = %24, %28, %9, %13, %.lr.ph
  %44 = getelementptr inbounds nuw i8, ptr %0, i64 16
  %45 = load ptr, ptr %44, align 8
  %wide.trip.count = zext nneg i32 %3 to i64
  br label %46

46:                                               ; preds = %.lr.ph140, %.thread103
  %indvars.iv = phi i64 [ 0, %.lr.ph140 ], [ %indvars.iv.next, %.thread103 ]
  %.050130138 = phi i32 [ 0, %.lr.ph140 ], [ %.555, %.thread103 ]
  %47 = getelementptr inbounds nuw %union.ListCell, ptr %45, i64 %indvars.iv
  %48 = load ptr, ptr %47, align 8
  %49 = load i32, ptr %48, align 4
  switch i32 %49, label %.split [
    i32 67, label %50
    i32 329, label %64
  ]

50:                                               ; preds = %46
  %51 = getelementptr inbounds nuw i8, ptr %48, i64 24
  %52 = load i8, ptr %51, align 8, !range !4, !noundef !5
  %53 = trunc nuw i8 %52 to i1
  br i1 %53, label %54, label %.thread103

54:                                               ; preds = %50
  %55 = add i32 %.050130138, 1
  %56 = icmp sgt i32 %55, 1
  br i1 %56, label %.thread90, label %57

57:                                               ; preds = %54
  %58 = getelementptr inbounds nuw i8, ptr %48, i64 4
  %59 = load i32, ptr %58, align 4
  %60 = icmp eq i32 %59, 6
  br i1 %60, label %.thread90, label %61

61:                                               ; preds = %57
  %62 = getelementptr inbounds nuw i8, ptr %48, i64 152
  %63 = load ptr, ptr %62, align 8
  %.not = icmp eq ptr %63, null
  br i1 %.not, label %.thread90, label %.thread103

64:                                               ; preds = %46
  %65 = getelementptr inbounds nuw i8, ptr %48, i64 18
  %66 = load i8, ptr %65, align 2, !range !4, !noundef !5
  %67 = trunc nuw i8 %66 to i1
  br i1 %67, label %68, label %.thread103

68:                                               ; preds = %64
  %69 = add i32 %.050130138, 1
  %70 = icmp sgt i32 %69, 1
  br i1 %70, label %.thread90, label %71

71:                                               ; preds = %68
  %72 = getelementptr inbounds nuw i8, ptr %48, i64 4
  %73 = load i32, ptr %72, align 4
  %74 = icmp eq i32 %73, 6
  br i1 %74, label %.thread90, label %75

75:                                               ; preds = %71
  %76 = getelementptr inbounds nuw i8, ptr %48, i64 16
  %77 = load i8, ptr %76, align 8, !range !4, !noundef !5
  %78 = trunc nuw i8 %77 to i1
  br i1 %78, label %.thread103, label %.thread90

.split:                                           ; preds = %46
  %79 = tail call zeroext i1 @errstart_cold(i32 noundef 21, ptr noundef null) #12
  tail call void @llvm.assume(i1 %79)
  %80 = load i32, ptr %48, align 4
  %81 = tail call i32 (ptr, ...) @errmsg_internal(ptr noundef nonnull @.str, i32 noundef %80) #11
  tail call void @errfinish(ptr noundef nonnull @.str.1, i32 noundef 309, ptr noundef nonnull @__func__.ChoosePortalStrategy) #11
  unreachable

.thread103:                                       ; preds = %64, %50, %75, %61
  %.555 = phi i32 [ %55, %61 ], [ %69, %75 ], [ %.050130138, %50 ], [ %.050130138, %64 ]
  %indvars.iv.next = add nuw nsw i64 %indvars.iv, 1
  %exitcond.not = icmp eq i64 %indvars.iv.next, %wide.trip.count
  br i1 %exitcond.not, label %._crit_edge.loopexit, label %46

._crit_edge.loopexit:                             ; preds = %.thread103
  %82 = icmp eq i32 %.555, 1
  %83 = select i1 %82, i32 1, i32 4
  br label %.thread90

.thread90:                                        ; preds = %61, %75, %54, %57, %68, %71, %.lr.ph, %1, %._crit_edge.loopexit, %31, %35, %16, %20
  %.5 = phi i32 [ %.78, %35 ], [ %.77, %31 ], [ %.76, %20 ], [ %., %16 ], [ 4, %.lr.ph ], [ 4, %1 ], [ %83, %._crit_edge.loopexit ], [ 4, %71 ], [ 4, %68 ], [ 4, %57 ], [ 4, %54 ], [ 4, %75 ], [ 4, %61 ]
  ret i32 %.5
}